; Function Attrs: nofree norecurse nosync nounwind memory(none) uwtable
define hidden ptr @SSL_get_curve_name(i16 noundef zeroext %0) local_unnamed_addr #0 {
  br label %4

2:                                                ; preds = %4
  %3 = add nuw nsw i64 %.06.i, 1
  %exitcond.not.i = icmp eq i64 %3, 4
  br i1 %exitcond.not.i, label %method_from_curve_id.exit, label %4, !llvm.loop !6

4:                                                ; preds = %2, %1
  %.06.i = phi i64 [ 0, %1 ], [ %3, %2 ]
  %5 = getelementptr inbounds nuw [4 x %struct.ssl_ecdh_method_st], ptr @kMethods, i64 0, i64 %.06.i
  %6 = getelementptr inbounds nuw i8, ptr %5, i64 4
  %7 = load i16, ptr %6, align 4, !tbaa !8
  %8 = icmp eq i16 %7, %0
  br i1 %8, label %method_from_curve_id.exit, label %2

method_from_curve_id.exit:                        ; preds = %2, %4
  %.05.i = phi ptr [ %5, %4 ], [ null, %2 ]
  %9 = icmp eq ptr %.05.i, null
  %10 = getelementptr inbounds nuw i8, ptr %.05.i, i64 6
  %.0 = select i1 %9, ptr null, ptr %10
  ret ptr %.0
}